; Function Attrs: mustprogress uwtable
define void @_ZNK6icu_7739FormattedValueFieldPositionIteratorImpl12toTempStringER10UErrorCode(ptr dead_on_unwind noalias writable sret(%"class.icu_77::UnicodeString") align 8 %0, ptr noundef nonnull align 8 dereferenceable(104) %1, ptr nonnull readnone align 4 captures(none) %2) unnamed_addr #1 align 2 personality ptr @__gxx_personality_v0 {
  %4 = alloca %"class.icu_77::ConstChar16Ptr", align 8
  %5 = getelementptr inbounds nuw i8, ptr %1, i64 16
  %6 = load i16, ptr %5, align 8, !tbaa !17
  %7 = and i16 %6, 17
  %.not.i = icmp eq i16 %7, 0
  br i1 %.not.i, label %8, label %15

8:                                                ; preds = %3
  %9 = and i16 %6, 2
  %.not2.i = icmp eq i16 %9, 0
  br i1 %.not2.i, label %12, label %10

10:                                               ; preds = %8
  %11 = getelementptr inbounds nuw i8, ptr %1, i64 18
  br label %15

12:                                               ; preds = %8
  %13 = getelementptr inbounds nuw i8, ptr %1, i64 32
  %14 = load ptr, ptr %13, align 8, !tbaa !17
  br label %15

15:                                               ; preds = %12, %10, %3
  %.0.i = phi ptr [ %11, %10 ], [ %14, %12 ], [ null, %3 ]
  store ptr %.0.i, ptr %4, align 8, !tbaa !18
  %16 = icmp slt i16 %6, 0
  %17 = ashr i16 %6, 5
  %18 = sext i16 %17 to i32
  %19 = getelementptr inbounds nuw i8, ptr %1, i64 20
  %20 = load i32, ptr %19, align 4
  %21 = select i1 %16, i32 %20, i32 %18
  invoke void @_ZN6icu_7713UnicodeStringC1EaNS_14ConstChar16PtrEi(ptr noundef nonnull align 8 dereferenceable(64) %0, i8 noundef signext 1, ptr noundef nonnull %4, i32 noundef %21)
          to label %22 unwind label %24

22:                                               ; preds = %15
  %23 = load ptr, ptr %4, align 8, !tbaa !18
  call void asm sideeffect "", "rm,~{memory},~{dirflag},~{fpsr},~{flags}"(ptr %23) #11, !srcloc !21
  ret void

24:                                               ; preds = %15
  %25 = landingpad { ptr, i32 }
          cleanup
  %26 = load ptr, ptr %4, align 8, !tbaa !18
  call void asm sideeffect "", "rm,~{memory},~{dirflag},~{fpsr},~{flags}"(ptr %26) #11, !srcloc !21
  resume { ptr, i32 } %25
}